target datalayout = "e-m:e-p270:32:32-p271:32:32-p272:64:64-i64:64-i128:128-f80:128-n8:16:32:64-S128"
target triple = "x86_64-pc-linux-gnu"

@.str.1 = private unnamed_addr constant [10 x i8] c"utility.c\00", align 1
@XactReadOnly = external global i8, align 1
@.str.2 = private unnamed_addr constant [45 x i8] c"cannot execute %s in a read-only transaction\00", align 1
@__func__.PreventCommandIfReadOnly = private unnamed_addr constant [25 x i8] c"PreventCommandIfReadOnly\00", align 1

; Function Attrs: nounwind uwtable
define dso_local void @PreventCommandIfReadOnly(ptr noundef %0) #0 {
  %2 = alloca ptr, align 8
  store ptr %0, ptr %2, align 8
  %3 = load i8, ptr @XactReadOnly, align 1, !range !4, !noundef !5
  %4 = trunc i8 %3 to i1
  br i1 %4, label %5, label %17

5:                                                ; preds = %1
  br label %6

6:                                                ; preds = %5
  br i1 true, label %7, label %9

7:                                                ; preds = %6
  %8 = call zeroext i1 @errstart_cold(i32 noundef 21, ptr noundef null) #10
  br i1 %8, label %11, label %15

9:                                                ; preds = %6
  %10 = call zeroext i1 @errstart(i32 noundef 21, ptr noundef null)
  br i1 %10, label %11, label %15

11:                                               ; preds = %9, %7
  %12 = call i32 @errcode(i32 noundef 100663618)
  %13 = load ptr, ptr %2, align 8
  %14 = call i32 (ptr, ...) @errmsg(ptr noundef @.str.2, ptr noundef %13)
  call void @errfinish(ptr noundef @.str.1, i32 noundef 411, ptr noundef @__func__.PreventCommandIfReadOnly)
  br label %15

15:                                               ; preds = %11, %9, %7
  unreachable

16:                                               ; No predecessors!
  br label %17

17:                                               ; preds = %16, %1
  ret void
}