; Function Attrs: nounwind uwtable
define dso_local void @PreventCommandIfReadOnly(ptr noundef %0) local_unnamed_addr #0 {
  %2 = load i8, ptr @XactReadOnly, align 1, !range !4, !noundef !5
  %3 = trunc nuw i8 %2 to i1
  br i1 %3, label %4, label %8

4:                                                ; preds = %1
  %5 = tail call zeroext i1 @errstart_cold(i32 noundef 21, ptr noundef null) #12
  tail call void @llvm.assume(i1 %5)
  %6 = tail call i32 @errcode(i32 noundef 100663618) #11
  %7 = tail call i32 (ptr, ...) @errmsg(ptr noundef nonnull @.str.2, ptr noundef %0) #11
  tail call void @errfinish(ptr noundef nonnull @.str.1, i32 noundef 411, ptr noundef nonnull @__func__.PreventCommandIfReadOnly) #11
  unreachable

8:                                                ; preds = %1
  ret void
}